target datalayout = "e-m:e-p270:32:32-p271:32:32-p272:64:64-i64:64-i128:128-f80:128-n8:16:32:64-S128"
target triple = "x86_64-pc-linux-gnu"

%struct.ARKodeARKStepMemRec = type { ptr, ptr, i32, i32, i32, i32, i32, i32, ptr, ptr, ptr, ptr, ptr, ptr, i32, i32, i32, i32, ptr, ptr, ptr, ptr, i32, ptr, double, double, double, double, i32, double, double, double, double, double, double, i32, i64, i32, i32, i32, ptr, ptr, ptr, ptr, ptr, ptr, i32, ptr, ptr, ptr, ptr, ptr, ptr, i32, i32, i64, i64, i64, i64, i64, ptr, ptr, i32, i32, i32, double, double, ptr, i32, ptr, ptr }
%struct.ARKodeMemRec = type { ptr, double, ptr, i32, i32, double, double, ptr, i32, double, ptr, i32, i32, ptr, ptr, i32, ptr, ptr, i32, ptr, ptr, ptr, ptr, ptr, ptr, ptr, ptr, ptr, ptr, ptr, ptr, ptr, ptr, ptr, i32, ptr, ptr, i32, ptr, i32, ptr, ptr, ptr, ptr, ptr, ptr, ptr, ptr, ptr, ptr, ptr, ptr, ptr, ptr, ptr, ptr, ptr, ptr, ptr, ptr, ptr, ptr, ptr, ptr, ptr, ptr, i32, ptr, ptr, ptr, ptr, ptr, ptr, ptr, i32, ptr, ptr, ptr, i32, ptr, ptr, ptr, ptr, ptr, ptr, ptr, i32, i32, i32, i32, double, double, double, double, double, double, double, double, double, double, i32, ptr, i64, i32, i32, i32, i32, i64, i64, i32, i64, i64, i64, i64, i64, i64, i64, double, double, double, double, double, i32, double, double, i32, i32, i32, i32, i32, i32, i32, i32, ptr, i32, ptr, ptr, ptr, ptr, i32, i32, i32 }

@.str = private unnamed_addr constant [126 x i8] c"generated/home/dtcxzyw/WorkSpace/Projects/compilers/llvm-opt-benchmark/bench/sundials/sundials/src/arkode/arkode_arkstep_io.c\00", align 1
@__func__.ARKStepSetImplicit = private unnamed_addr constant [19 x i8] c"ARKStepSetImplicit\00", align 1
@.str.2 = private unnamed_addr constant [88 x i8] c"Cannot specify that method is implicit without providing a function pointer to fi(t,y).\00", align 1

; Function Attrs: nounwind uwtable
define i32 @ARKStepSetImplicit(ptr noundef %0) #0 {
  %2 = alloca i32, align 4
  %3 = alloca ptr, align 8
  %4 = alloca ptr, align 8
  %5 = alloca ptr, align 8
  %6 = alloca i32, align 4
  %7 = alloca i32, align 4
  store ptr %0, ptr %3, align 8, !tbaa !3
  call void @llvm.lifetime.start.p0(i64 8, ptr %4) #4
  call void @llvm.lifetime.start.p0(i64 8, ptr %5) #4
  call void @llvm.lifetime.start.p0(i64 4, ptr %6) #4
  %8 = load ptr, ptr %3, align 8, !tbaa !3
  %9 = call i32 @arkStep_AccessARKODEStepMem(ptr noundef %8, ptr noundef @__func__.ARKStepSetImplicit, ptr noundef %4, ptr noundef %5)
  store i32 %9, ptr %6, align 4, !tbaa !7
  %10 = load i32, ptr %6, align 4, !tbaa !7
  %11 = icmp ne i32 %10, 0
  br i1 %11, label %12, label %14

12:                                               ; preds = %1
  %13 = load i32, ptr %6, align 4, !tbaa !7
  store i32 %13, ptr %2, align 4
  store i32 1, ptr %7, align 4
  br label %65

14:                                               ; preds = %1
  %15 = load ptr, ptr %5, align 8, !tbaa !9
  %16 = getelementptr inbounds nuw %struct.ARKodeARKStepMemRec, ptr %15, i32 0, i32 1
  %17 = load ptr, ptr %16, align 8, !tbaa !24
  %18 = icmp eq ptr %17, null
  br i1 %18, label %19, label %21

19:                                               ; preds = %14
  %20 = load ptr, ptr %4, align 8, !tbaa !20
  call void (ptr, i32, i32, ptr, ptr, ptr, ...) @arkProcessError(ptr noundef %20, i32 noundef -22, i32 noundef 83, ptr noundef @__func__.ARKStepSetImplicit, ptr noundef @.str, ptr noundef @.str.2)
  store i32 -22, ptr %2, align 4
  store i32 1, ptr %7, align 4
  br label %65

21:                                               ; preds = %14
  %22 = load ptr, ptr %5, align 8, !tbaa !9
  %23 = getelementptr inbounds nuw %struct.ARKodeARKStepMemRec, ptr %22, i32 0, i32 6
  store i32 1, ptr %23, align 8, !tbaa !23
  %24 = load ptr, ptr %5, align 8, !tbaa !9
  %25 = getelementptr inbounds nuw %struct.ARKodeARKStepMemRec, ptr %24, i32 0, i32 5
  store i32 0, ptr %25, align 4, !tbaa !22
  %26 = load ptr, ptr %4, align 8, !tbaa !20
  %27 = getelementptr inbounds nuw %struct.ARKodeMemRec, ptr %26, i32 0, i32 12
  %28 = load i32, ptr %27, align 4, !tbaa !25
  %29 = icmp ne i32 %28, 0
  br i1 %29, label %64, label %30

30:                                               ; preds = %21
  %31 = load ptr, ptr %4, align 8, !tbaa !20
  %32 = getelementptr inbounds nuw %struct.ARKodeMemRec, ptr %31, i32 0, i32 3
  %33 = load i32, ptr %32, align 8, !tbaa !32
  %34 = icmp eq i32 %33, 1
  br i1 %34, label %35, label %49

35:                                               ; preds = %30
  %36 = load ptr, ptr %4, align 8, !tbaa !20
  %37 = getelementptr inbounds nuw %struct.ARKodeMemRec, ptr %36, i32 0, i32 7
  %38 = load ptr, ptr %37, align 8, !tbaa !33
  %39 = icmp ne ptr %38, null
  br i1 %39, label %40, label %49

40:                                               ; preds = %35
  %41 = load ptr, ptr %4, align 8, !tbaa !20
  %42 = load ptr, ptr %4, align 8, !tbaa !20
  %43 = getelementptr inbounds nuw %struct.ARKodeMemRec, ptr %42, i32 0, i32 5
  %44 = load double, ptr %43, align 8, !tbaa !34
  %45 = load ptr, ptr %4, align 8, !tbaa !20
  %46 = getelementptr inbounds nuw %struct.ARKodeMemRec, ptr %45, i32 0, i32 7
  %47 = load ptr, ptr %46, align 8, !tbaa !33
  %48 = call i32 @ARKodeSVtolerances(ptr noundef %41, double noundef %44, ptr noundef %47)
  store i32 %48, ptr %6, align 4, !tbaa !7
  br label %58

49:                                               ; preds = %35, %30
  %50 = load ptr, ptr %4, align 8, !tbaa !20
  %51 = load ptr, ptr %4, align 8, !tbaa !20
  %52 = getelementptr inbounds nuw %struct.ARKodeMemRec, ptr %51, i32 0, i32 5
  %53 = load double, ptr %52, align 8, !tbaa !34
  %54 = load ptr, ptr %4, align 8, !tbaa !20
  %55 = getelementptr inbounds nuw %struct.ARKodeMemRec, ptr %54, i32 0, i32 6
  %56 = load double, ptr %55, align 8, !tbaa !35
  %57 = call i32 @ARKodeSStolerances(ptr noundef %50, double noundef %53, double noundef %56)
  store i32 %57, ptr %6, align 4, !tbaa !7
  br label %58

58:                                               ; preds = %49, %40
  %59 = load i32, ptr %6, align 4, !tbaa !7
  %60 = icmp ne i32 %59, 0
  br i1 %60, label %61, label %63

61:                                               ; preds = %58
  %62 = load i32, ptr %6, align 4, !tbaa !7
  store i32 %62, ptr %2, align 4
  store i32 1, ptr %7, align 4
  br label %65

63:                                               ; preds = %58
  br label %64

64:                                               ; preds = %63, %21
  store i32 0, ptr %2, align 4
  store i32 1, ptr %7, align 4
  br label %65

65:                                               ; preds = %64, %61, %19, %12
  call void @llvm.lifetime.end.p0(i64 4, ptr %6) #4
  call void @llvm.lifetime.end.p0(i64 8, ptr %5) #4
  call void @llvm.lifetime.end.p0(i64 8, ptr %4) #4
  %66 = load i32, ptr %2, align 4
  ret i32 %66
}