; Function Attrs: nounwind uwtable
define i32 @ARKStepSetImplicit(ptr noundef %0) local_unnamed_addr #0 {
  %2 = alloca ptr, align 8
  %3 = alloca ptr, align 8
  call void @llvm.lifetime.start.p0(i64 8, ptr nonnull %2) #5
  call void @llvm.lifetime.start.p0(i64 8, ptr nonnull %3) #5
  %4 = call i32 @arkStep_AccessARKODEStepMem(ptr noundef %0, ptr noundef nonnull @__func__.ARKStepSetImplicit, ptr noundef nonnull %2, ptr noundef nonnull %3) #5
  %.not = icmp eq i32 %4, 0
  br i1 %.not, label %5, label %37

5:                                                ; preds = %1
  %6 = load ptr, ptr %3, align 8, !tbaa !3
  %7 = getelementptr inbounds nuw i8, ptr %6, i64 8
  %8 = load ptr, ptr %7, align 8, !tbaa !22
  %9 = icmp eq ptr %8, null
  br i1 %9, label %10, label %12

10:                                               ; preds = %5
  %11 = load ptr, ptr %2, align 8, !tbaa !18
  call void (ptr, i32, i32, ptr, ptr, ptr, ...) @arkProcessError(ptr noundef %11, i32 noundef -22, i32 noundef 83, ptr noundef nonnull @__func__.ARKStepSetImplicit, ptr noundef nonnull @.str, ptr noundef nonnull @.str.2) #5
  br label %37

12:                                               ; preds = %5
  %13 = getelementptr inbounds nuw i8, ptr %6, i64 32
  store i32 1, ptr %13, align 8, !tbaa !21
  %14 = getelementptr inbounds nuw i8, ptr %6, i64 28
  store i32 0, ptr %14, align 4, !tbaa !20
  %15 = load ptr, ptr %2, align 8, !tbaa !18
  %16 = getelementptr inbounds nuw i8, ptr %15, i64 84
  %17 = load i32, ptr %16, align 4, !tbaa !23
  %.not8 = icmp eq i32 %17, 0
  br i1 %.not8, label %18, label %36

18:                                               ; preds = %12
  %19 = getelementptr inbounds nuw i8, ptr %15, i64 24
  %20 = load i32, ptr %19, align 8, !tbaa !30
  %21 = icmp eq i32 %20, 1
  br i1 %21, label %22, label %29

22:                                               ; preds = %18
  %23 = getelementptr inbounds nuw i8, ptr %15, i64 48
  %24 = load ptr, ptr %23, align 8, !tbaa !31
  %.not9 = icmp eq ptr %24, null
  br i1 %.not9, label %29, label %25

25:                                               ; preds = %22
  %26 = getelementptr inbounds nuw i8, ptr %15, i64 32
  %27 = load double, ptr %26, align 8, !tbaa !32
  %28 = call i32 @ARKodeSVtolerances(ptr noundef nonnull %15, double noundef %27, ptr noundef nonnull %24) #5
  br label %35

29:                                               ; preds = %22, %18
  %30 = getelementptr inbounds nuw i8, ptr %15, i64 32
  %31 = load double, ptr %30, align 8, !tbaa !32
  %32 = getelementptr inbounds nuw i8, ptr %15, i64 40
  %33 = load double, ptr %32, align 8, !tbaa !33
  %34 = call i32 @ARKodeSStolerances(ptr noundef nonnull %15, double noundef %31, double noundef %33) #5
  br label %35

35:                                               ; preds = %29, %25
  %.0 = phi i32 [ %28, %25 ], [ %34, %29 ]
  %.not10 = icmp eq i32 %.0, 0
  br i1 %.not10, label %36, label %37

36:                                               ; preds = %35, %12
  br label %37

37:                                               ; preds = %35, %1, %36, %10
  %.05 = phi i32 [ -22, %10 ], [ 0, %36 ], [ %4, %1 ], [ %.0, %35 ]
  call void @llvm.lifetime.end.p0(i64 8, ptr nonnull %3) #5
  call void @llvm.lifetime.end.p0(i64 8, ptr nonnull %2) #5
  ret i32 %.05
}